ccopy_reg
_reconstructor
p0
(ccheckmate.models.Tool
Tool
p1
c__builtin__
object
p2
Ntp3
Rp4
(dp5
Vname
p6
VAmandroid
p7
sVoptions
p8
c__builtin__
set
p9
((lp10
g0
(ccheckmate.models.Option
Option
p11
g2
Ntp12
Rp13
(dp14
g6
Vkcontext
p15
sVprecision
p16
(lp17
Vk
p18
aVk+1
p19
asVsoundness
p20
(lp21
sVall
p22
g9
((lp23
g18
ag19
atp24
Rp25
sVconstraints
p26
(lp27
sVtags
p28
g9
((lp29
ccheckmate.models.Tag
Tag
p30
(I1
tp31
Rp32
atp33
Rp34
sbatp35
Rp36
sg26
g9
((lp37
tp38
Rp39
sb.