ccopy_reg
_reconstructor
p0
(ccheckmate.models.Tool
Tool
p1
c__builtin__
object
p2
Ntp3
Rp4
(dp5
Vname
p6
VFlowDroid
p7
sVoptions
p8
c__builtin__
set
p9
((lp10
g0
(ccheckmate.models.Option
Option
p11
g2
Ntp12
Rp13
(dp14
g6
Vcodeelimination
p15
sVprecision
p16
(lp17
(g0
(ccheckmate.models.Level
Level
p18
g2
Ntp19
Rp20
(dp21
Voption_name
p22
g15
sVlevel_name
p23
VREMOVECODE
p24
sbg0
(g18
g2
Ntp25
Rp26
(dp27
g22
g15
sg23
VDEFAULT
p28
sbtp29
a(g26
g0
(g18
g2
Ntp30
Rp31
(dp32
g22
g15
sg23
VNONE
p33
sbtp34
asVsoundness
p35
(lp36
(g20
g26
tp37
a(g26
g20
tp38
a(g26
g31
tp39
a(g31
g26
tp40
asVall
p41
g9
((lp42
g26
ag20
ag31
atp43
Rp44
sVconstraints
p45
(lp46
sVtags
p47
g9
((lp48
ccheckmate.models.Tag
Tag
p49
(I5
tp50
Rp51
atp52
Rp53
sVdefault
p54
g26
sVoptions_involved_in_partial_orders
p55
g9
((lp56
g26
ag20
ag31
atp57
Rp58
sbag0
(g11
g2
Ntp59
Rp60
(dp61
g6
Vsinglejoinpointabstraction
p62
sg16
(lp63
sg35
(lp64
(g0
(g18
g2
Ntp65
Rp66
(dp67
g22
g62
sg23
VFALSE
p68
sbg0
(g18
g2
Ntp69
Rp70
(dp71
g22
g62
sg23
VTRUE
p72
sbtp73
asg41
g9
((lp74
g70
ag66
atp75
Rp76
sg45
(lp77
sg47
g9
((lp78
g51
atp79
Rp80
sg54
g66
sg55
g9
((lp81
g70
ag66
atp82
Rp83
sbag0
(g11
g2
Ntp84
Rp85
(dp86
g6
Vcgalgo
p87
sg16
(lp88
(g0
(g18
g2
Ntp89
Rp90
(dp91
g22
g87
sg23
VRTA
p92
sbg0
(g18
g2
Ntp93
Rp94
(dp95
g22
g87
sg23
VCHA
p96
sbtp97
a(g0
(g18
g2
Ntp98
Rp99
(dp100
g22
g87
sg23
VVTA
p101
sbg90
tp102
asg35
(lp103
(g90
g94
tp104
a(g94
g90
tp105
a(g99
g90
tp106
a(g90
g99
tp107
asg41
g9
((lp108
g0
(g18
g2
Ntp109
Rp110
(dp111
g22
g87
sg23
g28
sbag94
ag90
ag99
ag0
(g18
g2
Ntp112
Rp113
(dp114
g22
g87
sg23
VGEOM
p115
sbatp116
Rp117
sg45
(lp118
sg47
g9
((lp119
g49
(I4
tp120
Rp121
ag49
(I1
tp122
Rp123
atp124
Rp125
sg54
g110
sg55
g9
((lp126
g99
ag90
ag94
atp127
Rp128
sbag0
(g11
g2
Ntp129
Rp130
(dp131
g6
Vmaxcallbacksdepth
p132
sg16
(lp133
sg35
(lp134
(g0
(g18
g2
Ntp135
Rp136
(dp137
g22
g132
sg23
V1
p138
sbg0
(g18
g2
Ntp139
Rp140
(dp141
g22
g132
sg23
V50
p142
sbtp143
a(g136
g0
(g18
g2
Ntp144
Rp145
(dp146
g22
g132
sg23
V80
p147
sbtp148
a(g136
g0
(g18
g2
Ntp149
Rp150
(dp151
g22
g132
sg23
V90
p152
sbtp153
a(g136
g0
(g18
g2
Ntp154
Rp155
(dp156
g22
g132
sg23
V100
p157
sbtp158
a(g136
g0
(g18
g2
Ntp159
Rp160
(dp161
g22
g132
sg23
V110
p162
sbtp163
a(g136
g0
(g18
g2
Ntp164
Rp165
(dp166
g22
g132
sg23
V120
p167
sbtp168
a(g136
g0
(g18
g2
Ntp169
Rp170
(dp171
g22
g132
sg23
V150
p172
sbtp173
a(g136
g0
(g18
g2
Ntp174
Rp175
(dp176
g22
g132
sg23
V600
p177
sbtp178
a(g136
g0
(g18
g2
Ntp179
Rp180
(dp181
g22
g132
sg23
V-1
p182
sbtp183
a(g140
g136
tp184
a(g140
g145
tp185
a(g140
g150
tp186
a(g140
g155
tp187
a(g140
g160
tp188
a(g140
g165
tp189
a(g140
g170
tp190
a(g140
g175
tp191
a(g140
g180
tp192
a(g145
g136
tp193
a(g145
g140
tp194
a(g145
g150
tp195
a(g145
g155
tp196
a(g145
g160
tp197
a(g145
g165
tp198
a(g145
g170
tp199
a(g145
g175
tp200
a(g145
g180
tp201
a(g150
g136
tp202
a(g150
g140
tp203
a(g150
g145
tp204
a(g150
g155
tp205
a(g150
g160
tp206
a(g150
g165
tp207
a(g150
g170
tp208
a(g150
g175
tp209
a(g150
g180
tp210
a(g155
g136
tp211
a(g155
g140
tp212
a(g155
g145
tp213
a(g155
g150
tp214
a(g155
g160
tp215
a(g155
g165
tp216
a(g155
g170
tp217
a(g155
g175
tp218
a(g155
g180
tp219
a(g160
g136
tp220
a(g160
g140
tp221
a(g160
g145
tp222
a(g160
g150
tp223
a(g160
g155
tp224
a(g160
g165
tp225
a(g160
g170
tp226
a(g160
g175
tp227
a(g160
g180
tp228
a(g165
g136
tp229
a(g165
g140
tp230
a(g165
g145
tp231
a(g165
g150
tp232
a(g165
g155
tp233
a(g165
g160
tp234
a(g165
g170
tp235
a(g165
g175
tp236
a(g165
g180
tp237
a(g170
g136
tp238
a(g170
g140
tp239
a(g170
g145
tp240
a(g170
g150
tp241
a(g170
g155
tp242
a(g170
g160
tp243
a(g170
g165
tp244
a(g170
g175
tp245
a(g170
g180
tp246
a(g175
g136
tp247
a(g175
g140
tp248
a(g175
g145
tp249
a(g175
g150
tp250
a(g175
g155
tp251
a(g175
g160
tp252
a(g175
g165
tp253
a(g175
g170
tp254
a(g175
g180
tp255
asg41
g9
((lp256
g140
ag170
ag136
ag145
ag160
ag155
ag180
ag165
ag150
ag175
atp257
Rp258
sg45
(lp259
sg47
g9
((lp260
g49
(I6
tp261
Rp262
atp263
Rp264
sg54
g180
sg55
g9
((lp265
g140
ag170
ag136
ag145
ag160
ag155
ag180
ag165
ag150
ag175
atp266
Rp267
sbag0
(g11
g2
Ntp268
Rp269
(dp270
g6
Vaplength
p271
sg16
(lp272
(g0
(g18
g2
Ntp273
Rp274
(dp275
g22
g271
sg23
V2
p276
sbg0
(g18
g2
Ntp277
Rp278
(dp279
g22
g271
sg23
g138
sbtp280
a(g0
(g18
g2
Ntp281
Rp282
(dp283
g22
g271
sg23
V3
p284
sbg278
tp285
a(g0
(g18
g2
Ntp286
Rp287
(dp288
g22
g271
sg23
V4
p289
sbg278
tp290
a(g0
(g18
g2
Ntp291
Rp292
(dp293
g22
g271
sg23
V5
p294
sbg278
tp295
a(g0
(g18
g2
Ntp296
Rp297
(dp298
g22
g271
sg23
V7
p299
sbg278
tp300
a(g0
(g18
g2
Ntp301
Rp302
(dp303
g22
g271
sg23
V10
p304
sbg278
tp305
a(g0
(g18
g2
Ntp306
Rp307
(dp308
g22
g271
sg23
V20
p309
sbg278
tp310
a(g282
g274
tp311
a(g287
g274
tp312
a(g292
g274
tp313
a(g297
g274
tp314
a(g302
g274
tp315
a(g307
g274
tp316
a(g287
g282
tp317
a(g292
g282
tp318
a(g297
g282
tp319
a(g302
g282
tp320
a(g307
g282
tp321
a(g292
g287
tp322
a(g297
g287
tp323
a(g302
g287
tp324
a(g307
g287
tp325
a(g297
g292
tp326
a(g302
g292
tp327
a(g307
g292
tp328
a(g302
g297
tp329
a(g307
g297
tp330
a(g307
g302
tp331
asg35
(lp332
(g274
g278
tp333
a(g278
g274
tp334
a(g282
g278
tp335
a(g278
g282
tp336
a(g287
g278
tp337
a(g278
g287
tp338
a(g292
g278
tp339
a(g278
g292
tp340
a(g297
g278
tp341
a(g278
g297
tp342
a(g302
g278
tp343
a(g278
g302
tp344
a(g307
g278
tp345
a(g278
g307
tp346
a(g282
g274
tp347
a(g274
g282
tp348
a(g287
g274
tp349
a(g274
g287
tp350
a(g292
g274
tp351
a(g274
g292
tp352
a(g297
g274
tp353
a(g274
g297
tp354
a(g302
g274
tp355
a(g274
g302
tp356
a(g307
g274
tp357
a(g274
g307
tp358
a(g287
g282
tp359
a(g282
g287
tp360
a(g292
g282
tp361
a(g282
g292
tp362
a(g297
g282
tp363
a(g282
g297
tp364
a(g302
g282
tp365
a(g282
g302
tp366
a(g307
g282
tp367
a(g282
g307
tp368
a(g292
g287
tp369
a(g287
g292
tp370
a(g297
g287
tp371
a(g287
g297
tp372
a(g302
g287
tp373
a(g287
g302
tp374
a(g307
g287
tp375
a(g287
g307
tp376
a(g297
g292
tp377
a(g292
g297
tp378
a(g302
g292
tp379
a(g292
g302
tp380
a(g307
g292
tp381
a(g292
g307
tp382
a(g302
g297
tp383
a(g297
g302
tp384
a(g307
g297
tp385
a(g297
g307
tp386
a(g307
g302
tp387
a(g302
g307
tp388
asg41
g9
((lp389
g287
ag278
ag292
ag307
ag297
ag282
ag274
ag302
atp390
Rp391
sg45
(lp392
sg47
g9
((lp393
g123
atp394
Rp395
sg54
g292
sg55
g9
((lp396
g287
ag278
ag292
ag307
ag297
ag282
ag274
ag302
atp397
Rp398
sbag0
(g11
g2
Ntp399
Rp400
(dp401
g6
Vnocallbacks
p402
sg16
(lp403
sg35
(lp404
(g0
(g18
g2
Ntp405
Rp406
(dp407
g22
g402
sg23
g68
sbg0
(g18
g2
Ntp408
Rp409
(dp410
g22
g402
sg23
g72
sbtp411
asg41
g9
((lp412
g409
ag406
atp413
Rp414
sg45
(lp415
sg47
g9
((lp416
g262
atp417
Rp418
sg54
g406
sg55
g9
((lp419
g409
ag406
atp420
Rp421
sbag0
(g11
g2
Ntp422
Rp423
(dp424
g6
Vnoexceptions
p425
sg16
(lp426
sg35
(lp427
(g0
(g18
g2
Ntp428
Rp429
(dp430
g22
g425
sg23
g68
sbg0
(g18
g2
Ntp431
Rp432
(dp433
g22
g425
sg23
g72
sbtp434
asg41
g9
((lp435
g432
ag429
atp436
Rp437
sg45
(lp438
sg47
g9
((lp439
g123
ag49
(I2
tp440
Rp441
atp442
Rp443
sg54
g429
sg55
g9
((lp444
g432
ag429
atp445
Rp446
sbag0
(g11
g2
Ntp447
Rp448
(dp449
g6
Vdataflowsolver
p450
sg16
(lp451
(g0
(g18
g2
Ntp452
Rp453
(dp454
g22
g450
sg23
g28
sbg0
(g18
g2
Ntp455
Rp456
(dp457
g22
g450
sg23
VFLOWINSENSITIVE
p458
sbtp459
asg35
(lp460
(g453
g456
tp461
a(g456
g453
tp462
asg41
g9
((lp463
g456
ag453
atp464
Rp465
sg45
(lp466
sg47
g9
((lp467
g51
atp468
Rp469
sg54
g453
sg55
g9
((lp470
g456
ag453
atp471
Rp472
sbag0
(g11
g2
Ntp473
Rp474
(dp475
g6
Vmaxcallbackspercomponent
p476
sg16
(lp477
sg35
(lp478
(g0
(g18
g2
Ntp479
Rp480
(dp481
g22
g476
sg23
g142
sbg0
(g18
g2
Ntp482
Rp483
(dp484
g22
g476
sg23
g138
sbtp485
a(g0
(g18
g2
Ntp486
Rp487
(dp488
g22
g476
sg23
g147
sbg483
tp489
a(g0
(g18
g2
Ntp490
Rp491
(dp492
g22
g476
sg23
g152
sbg483
tp493
a(g0
(g18
g2
Ntp494
Rp495
(dp496
g22
g476
sg23
g157
sbg483
tp497
a(g0
(g18
g2
Ntp498
Rp499
(dp500
g22
g476
sg23
g162
sbg483
tp501
a(g0
(g18
g2
Ntp502
Rp503
(dp504
g22
g476
sg23
g167
sbg483
tp505
a(g0
(g18
g2
Ntp506
Rp507
(dp508
g22
g476
sg23
g172
sbg483
tp509
a(g0
(g18
g2
Ntp510
Rp511
(dp512
g22
g476
sg23
g177
sbg483
tp513
a(g487
g480
tp514
a(g491
g480
tp515
a(g495
g480
tp516
a(g499
g480
tp517
a(g503
g480
tp518
a(g507
g480
tp519
a(g511
g480
tp520
a(g491
g487
tp521
a(g495
g487
tp522
a(g499
g487
tp523
a(g503
g487
tp524
a(g507
g487
tp525
a(g511
g487
tp526
a(g495
g491
tp527
a(g499
g491
tp528
a(g503
g491
tp529
a(g507
g491
tp530
a(g511
g491
tp531
a(g499
g495
tp532
a(g503
g495
tp533
a(g507
g495
tp534
a(g511
g495
tp535
a(g503
g499
tp536
a(g507
g499
tp537
a(g511
g499
tp538
a(g507
g503
tp539
a(g511
g503
tp540
a(g511
g507
tp541
asg41
g9
((lp542
g487
ag507
ag483
ag499
ag495
ag511
ag503
ag491
ag480
atp543
Rp544
sg45
(lp545
sg47
g9
((lp546
g262
atp547
Rp548
sg54
g495
sg55
g9
((lp549
g487
ag507
ag483
ag499
ag495
ag511
ag503
ag491
ag480
atp550
Rp551
sbag0
(g11
g2
Ntp552
Rp553
(dp554
g6
Vstaticmode
p555
sg16
(lp556
(g0
(g18
g2
Ntp557
Rp558
(dp559
g22
g555
sg23
g28
sbg0
(g18
g2
Ntp560
Rp561
(dp562
g22
g555
sg23
VCONTEXTFLOWINSENSITIVE
p563
sbtp564
asg35
(lp565
(g558
g561
tp566
a(g561
g558
tp567
a(g558
g0
(g18
g2
Ntp568
Rp569
(dp570
g22
g555
sg23
g33
sbtp571
a(g561
g569
tp572
asg41
g9
((lp573
g558
ag561
ag569
atp574
Rp575
sg45
(lp576
sg47
g9
((lp577
g49
(I3
tp578
Rp579
atp580
Rp581
sg54
g558
sg55
g9
((lp582
g558
ag561
ag569
atp583
Rp584
sbag0
(g11
g2
Ntp585
Rp586
(dp587
g6
Vpathalgo
p588
sg16
(lp589
(g0
(g18
g2
Ntp590
Rp591
(dp592
g22
g588
sg23
g28
sbg0
(g18
g2
Ntp593
Rp594
(dp595
g22
g588
sg23
VCONTEXTINSENSITIVE
p596
sbtp597
a(g591
g0
(g18
g2
Ntp598
Rp599
(dp600
g22
g588
sg23
VSOURCESONLY
p601
sbtp602
asg35
(lp603
(g591
g594
tp604
a(g594
g591
tp605
a(g591
g599
tp606
a(g599
g591
tp607
asg41
g9
((lp608
g594
ag591
ag599
atp609
Rp610
sg45
(lp611
sg47
g9
((lp612
g51
atp613
Rp614
sg54
g591
sg55
g9
((lp615
g594
ag591
ag599
atp616
Rp617
sbag0
(g11
g2
Ntp618
Rp619
(dp620
g6
Vnostatic
p621
sg16
(lp622
sg35
(lp623
(g0
(g18
g2
Ntp624
Rp625
(dp626
g22
g621
sg23
g68
sbg0
(g18
g2
Ntp627
Rp628
(dp629
g22
g621
sg23
g72
sbtp630
asg41
g9
((lp631
g628
ag625
atp632
Rp633
sg45
(lp634
sg47
g9
((lp635
g579
atp636
Rp637
sg54
g625
sg55
g9
((lp638
g628
ag625
atp639
Rp640
sbag0
(g11
g2
Ntp641
Rp642
(dp643
g6
Vtaintwrapper
p644
sg16
(lp645
sg35
(lp646
(g0
(g18
g2
Ntp647
Rp648
(dp649
g22
g644
sg23
VDEFAULTFALLBACK
p650
sbg0
(g18
g2
Ntp651
Rp652
(dp653
g22
g644
sg23
g33
sbtp654
a(g648
g0
(g18
g2
Ntp655
Rp656
(dp657
g22
g644
sg23
g28
sbtp658
a(g0
(g18
g2
Ntp659
Rp660
(dp661
g22
g644
sg23
VEASY
p662
sbg652
tp663
a(g656
g652
tp664
asg41
g9
((lp665
g656
ag660
ag652
ag648
atp666
Rp667
sg45
(lp668
sg47
g9
((lp669
g49
(I7
tp670
Rp671
atp672
Rp673
sg54
g656
sg55
g9
((lp674
g656
ag660
ag652
ag648
atp675
Rp676
sbag0
(g11
g2
Ntp677
Rp678
(dp679
g6
Vnothischainreduction
p680
sg16
(lp681
(g0
(g18
g2
Ntp682
Rp683
(dp684
g22
g680
sg23
g68
sbg0
(g18
g2
Ntp685
Rp686
(dp687
g22
g680
sg23
g72
sbtp688
asg35
(lp689
(g683
g686
tp690
a(g686
g683
tp691
asg41
g9
((lp692
g686
ag683
atp693
Rp694
sg45
(lp695
sg47
g9
((lp696
g123
atp697
Rp698
sg54
g683
sg55
g9
((lp699
g686
ag683
atp700
Rp701
sbag0
(g11
g2
Ntp702
Rp703
(dp704
g6
Vonesourceatatime
p705
sg16
(lp706
(g0
(g18
g2
Ntp707
Rp708
(dp709
g22
g705
sg23
g72
sbg0
(g18
g2
Ntp710
Rp711
(dp712
g22
g705
sg23
g68
sbtp713
asg35
(lp714
(g708
g711
tp715
a(g711
g708
tp716
asg41
g9
((lp717
g711
ag708
atp718
Rp719
sg45
(lp720
sg47
g9
((lp721
g51
atp722
Rp723
sg54
g711
sg55
g9
((lp724
g711
ag708
atp725
Rp726
sbag0
(g11
g2
Ntp727
Rp728
(dp729
g6
Vpathspecificresults
p730
sg16
(lp731
(g0
(g18
g2
Ntp732
Rp733
(dp734
g22
g730
sg23
g72
sbg0
(g18
g2
Ntp735
Rp736
(dp737
g22
g730
sg23
g68
sbtp738
asg35
(lp739
(g733
g736
tp740
a(g736
g733
tp741
asg41
g9
((lp742
g736
ag733
atp743
Rp744
sg45
(lp745
sg47
g9
((lp746
g51
atp747
Rp748
sg54
g736
sg55
g9
((lp749
g736
ag733
atp750
Rp751
sbag0
(g11
g2
Ntp752
Rp753
(dp754
g6
Valiasalgo
p755
sg16
(lp756
(g0
(g18
g2
Ntp757
Rp758
(dp759
g22
g755
sg23
g28
sbg0
(g18
g2
Ntp760
Rp761
(dp762
g22
g755
sg23
VLAZY
p763
sbtp764
a(g758
g0
(g18
g2
Ntp765
Rp766
(dp767
g22
g755
sg23
VPTSBASED
p768
sbtp769
asg35
(lp770
(g761
g0
(g18
g2
Ntp771
Rp772
(dp773
g22
g755
sg23
g33
sbtp774
a(g758
g772
tp775
a(g766
g772
tp776
a(g758
g761
tp777
a(g761
g758
tp778
a(g758
g766
tp779
a(g766
g758
tp780
asg41
g9
((lp781
g772
ag758
ag761
ag766
atp782
Rp783
sg45
(lp784
sg47
g9
((lp785
g123
atp786
Rp787
sg54
g758
sg55
g9
((lp788
g772
ag758
ag761
ag766
atp789
Rp790
sbag0
(g11
g2
Ntp791
Rp792
(dp793
g6
Valiasflowins
p794
sg16
(lp795
(g0
(g18
g2
Ntp796
Rp797
(dp798
g22
g794
sg23
g68
sbg0
(g18
g2
Ntp799
Rp800
(dp801
g22
g794
sg23
g72
sbtp802
asg35
(lp803
(g797
g800
tp804
a(g800
g797
tp805
asg41
g9
((lp806
g800
ag797
atp807
Rp808
sg45
(lp809
sg47
g9
((lp810
g123
atp811
Rp812
sg54
g797
sg55
g9
((lp813
g800
ag797
atp814
Rp815
sbag0
(g11
g2
Ntp816
Rp817
(dp818
g6
Vanalyzeframeworks
p819
sg16
(lp820
sg35
(lp821
(g0
(g18
g2
Ntp822
Rp823
(dp824
g22
g819
sg23
g72
sbg0
(g18
g2
Ntp825
Rp826
(dp827
g22
g819
sg23
g68
sbtp828
asg41
g9
((lp829
g826
ag823
atp830
Rp831
sg45
(lp832
sg47
g9
((lp833
tp834
Rp835
sg54
g826
sg55
g9
((lp836
g826
ag823
atp837
Rp838
sbag0
(g11
g2
Ntp839
Rp840
(dp841
g6
Vimplicit
p842
sg16
(lp843
sg35
(lp844
(g0
(g18
g2
Ntp845
Rp846
(dp847
g22
g842
sg23
VALL
p848
sbg0
(g18
g2
Ntp849
Rp850
(dp851
g22
g842
sg23
VARRAYONLY
p852
sbtp853
a(g850
g0
(g18
g2
Ntp854
Rp855
(dp856
g22
g842
sg23
g28
sbtp857
asg41
g9
((lp858
g850
ag846
ag855
atp859
Rp860
sg45
(lp861
sg47
g9
((lp862
g51
atp863
Rp864
sg54
g855
sg55
g9
((lp865
g850
ag846
ag855
atp866
Rp867
sbag0
(g11
g2
Ntp868
Rp869
(dp870
g6
Vcallbackanalyzer
p871
sg16
(lp872
(g0
(g18
g2
Ntp873
Rp874
(dp875
g22
g871
sg23
g28
sbg0
(g18
g2
Ntp876
Rp877
(dp878
g22
g871
sg23
VFAST
p879
sbtp880
asg35
(lp881
(g874
g877
tp882
a(g877
g874
tp883
asg41
g9
((lp884
g874
ag877
atp885
Rp886
sg45
(lp887
sg47
g9
((lp888
g262
atp889
Rp890
sg54
g874
sg55
g9
((lp891
g874
ag877
atp892
Rp893
sbag0
(g11
g2
Ntp894
Rp895
(dp896
g6
Vonecomponentatatime
p897
sg16
(lp898
sg35
(lp899
(g0
(g18
g2
Ntp900
Rp901
(dp902
g22
g897
sg23
g68
sbg0
(g18
g2
Ntp903
Rp904
(dp905
g22
g897
sg23
g72
sbtp906
asg41
g9
((lp907
g904
ag901
atp908
Rp909
sg45
(lp910
sg47
g9
((lp911
g262
atp912
Rp913
sg54
g901
sg55
g9
((lp914
g904
ag901
atp915
Rp916
sbag0
(g11
g2
Ntp917
Rp918
(dp919
g6
Venablereflection
p920
sg16
(lp921
sg35
(lp922
(g0
(g18
g2
Ntp923
Rp924
(dp925
g22
g920
sg23
g72
sbg0
(g18
g2
Ntp926
Rp927
(dp928
g22
g920
sg23
g68
sbtp929
asg41
g9
((lp930
g927
ag924
atp931
Rp932
sg45
(lp933
sg47
g9
((lp934
g121
atp935
Rp936
sg54
g927
sg55
g9
((lp937
g927
ag924
atp938
Rp939
sbatp940
Rp941
sg45
g9
((lp942
g0
(ccheckmate.models.Constraint
Constraint
p943
g2
Ntp944
Rp945
(dp946
Vo1
p947
g553
sVl1
p948
g0
(g18
g2
Ntp949
Rp950
(dp951
g22
g555
sg23
g561
sbsVo2
p952
g619
sVl2
p953
g628
sbag0
(g943
g2
Ntp954
Rp955
(dp956
g947
g553
sg948
g950
sg952
g619
sg953
g625
sbag0
(g943
g2
Ntp957
Rp958
(dp959
g947
g817
sg948
g0
(g18
g2
Ntp960
Rp961
(dp962
g22
g819
sg23
g72
sbsg952
g642
sg953
g656
sbag0
(g943
g2
Ntp963
Rp964
(dp965
g947
g400
sg948
g0
(g18
g2
Ntp966
Rp967
(dp968
g22
g402
sg23
g72
sbsg952
g869
sg953
g874
sbag0
(g943
g2
Ntp969
Rp970
(dp971
g947
g553
sg948
g0
(g18
g2
Ntp972
Rp973
(dp974
g22
g555
sg23
g558
sbsg952
g619
sg953
g628
sbag0
(g943
g2
Ntp975
Rp976
(dp977
g947
g817
sg948
g961
sg952
g642
sg953
g660
sbag0
(g943
g2
Ntp978
Rp979
(dp980
g947
g840
sg948
g848
sg952
g13
sg953
g24
sbag0
(g943
g2
Ntp981
Rp982
(dp983
g947
g553
sg948
g0
(g18
g2
Ntp984
Rp985
(dp986
g22
g555
sg23
g569
sbsg952
g619
sg953
g628
sbag0
(g943
g2
Ntp987
Rp988
(dp989
g947
g400
sg948
g967
sg952
g869
sg953
g877
sbag0
(g943
g2
Ntp990
Rp991
(dp992
g947
g553
sg948
g973
sg952
g619
sg953
g625
sbag0
(g943
g2
Ntp993
Rp994
(dp995
g947
g817
sg948
g961
sg952
g642
sg953
g652
sbag0
(g943
g2
Ntp996
Rp997
(dp998
g947
g553
sg948
g985
sg952
g619
sg953
g625
sbag0
(g943
g2
Ntp999
Rp1000
(dp1001
g947
g817
sg948
g961
sg952
g642
sg953
g648
sbatp1002
Rp1003
sb.